target datalayout = "e-m:e-p270:32:32-p271:32:32-p272:64:64-i64:64-i128:128-f80:128-n8:16:32:64-S128"
target triple = "x86_64-pc-linux-gnu"

%struct._asn1_ctx_t = type { i32, i32, i8, ptr, ptr, ptr, ptr, ptr, %struct.anon, %struct.anon.2, %struct.anon.3, ptr }
%struct.anon = type { i32, i8, i8, i8, ptr, ptr, i32, i32, ptr, ptr, ptr, %union.anon }
%union.anon = type { %struct.anon.0 }
%struct.anon.0 = type { ptr }
%struct.anon.2 = type { ptr, ptr, ptr }
%struct.anon.3 = type { i32, i8, ptr, i32, i32, ptr, ptr, ptr, %union.anon.4 }
%union.anon.4 = type { %struct.anon.5 }
%struct.anon.5 = type { ptr }
%struct._asn1_stack_frame_t = type { ptr, ptr, ptr }
%struct._asn1_par_def_t = type { ptr, i32 }
%struct._asn1_par_t = type { ptr, i32, %union.anon.8, ptr }
%union.anon.8 = type { ptr }

@.str = private unnamed_addr constant [29 x i8] c"%s:%u: failed assertion \22%s\22\00", align 1
@.str.1 = private unnamed_addr constant [12 x i8] c"epan/asn1.c\00", align 1
@.str.2 = private unnamed_addr constant [12 x i8] c"actx->stack\00", align 1
@.str.3 = private unnamed_addr constant [33 x i8] c"!strcmp(actx->stack->name, name)\00", align 1
@.str.4 = private unnamed_addr constant [4 x i8] c"par\00", align 1
@.str.5 = private unnamed_addr constant [57 x i8] c"(pd->ptype == ASN1_PAR_IRR) || (par->ptype == pd->ptype)\00", align 1
@.str.6 = private unnamed_addr constant [5 x i8] c"!par\00", align 1

; Function Attrs: nounwind uwtable
define hidden void @asn1_stack_frame_check(ptr noundef %0, ptr noundef %1, ptr noundef %2) #0 {
  %4 = alloca ptr, align 8
  %5 = alloca ptr, align 8
  %6 = alloca ptr, align 8
  %7 = alloca ptr, align 8
  %8 = alloca ptr, align 8
  store ptr %0, ptr %4, align 8
  store ptr %1, ptr %5, align 8
  store ptr %2, ptr %6, align 8
  %9 = load ptr, ptr %6, align 8
  store ptr %9, ptr %7, align 8
  %10 = load ptr, ptr %4, align 8
  %11 = getelementptr inbounds %struct._asn1_ctx_t, ptr %10, i32 0, i32 5
  %12 = load ptr, ptr %11, align 8
  %13 = icmp ne ptr %12, null
  br i1 %13, label %14, label %15

14:                                               ; preds = %3
  br label %17

15:                                               ; preds = %3
  call void (ptr, ...) @proto_report_dissector_bug(ptr noundef @.str, ptr noundef @.str.1, i32 noundef 70, ptr noundef @.str.2) #6
  unreachable

16:                                               ; No predecessors!
  br label %17

17:                                               ; preds = %16, %14
  %18 = load ptr, ptr %4, align 8
  %19 = getelementptr inbounds %struct._asn1_ctx_t, ptr %18, i32 0, i32 5
  %20 = load ptr, ptr %19, align 8
  %21 = getelementptr inbounds %struct._asn1_stack_frame_t, ptr %20, i32 0, i32 0
  %22 = load ptr, ptr %21, align 8
  %23 = load ptr, ptr %5, align 8
  %24 = call i32 @strcmp(ptr noundef %22, ptr noundef %23) #7
  %25 = icmp ne i32 %24, 0
  br i1 %25, label %27, label %26

26:                                               ; preds = %17
  br label %29

27:                                               ; preds = %17
  call void (ptr, ...) @proto_report_dissector_bug(ptr noundef @.str, ptr noundef @.str.1, i32 noundef 71, ptr noundef @.str.3) #6
  unreachable

28:                                               ; No predecessors!
  br label %29

29:                                               ; preds = %28, %26
  %30 = load ptr, ptr %4, align 8
  %31 = getelementptr inbounds %struct._asn1_ctx_t, ptr %30, i32 0, i32 5
  %32 = load ptr, ptr %31, align 8
  %33 = getelementptr inbounds %struct._asn1_stack_frame_t, ptr %32, i32 0, i32 1
  %34 = load ptr, ptr %33, align 8
  store ptr %34, ptr %8, align 8
  br label %35

35:                                               ; preds = %62, %29
  %36 = load ptr, ptr %7, align 8
  %37 = getelementptr inbounds %struct._asn1_par_def_t, ptr %36, i32 0, i32 0
  %38 = load ptr, ptr %37, align 8
  %39 = icmp ne ptr %38, null
  br i1 %39, label %40, label %73

40:                                               ; preds = %35
  %41 = load ptr, ptr %8, align 8
  %42 = icmp ne ptr %41, null
  br i1 %42, label %43, label %44

43:                                               ; preds = %40
  br label %46

44:                                               ; preds = %40
  call void (ptr, ...) @proto_report_dissector_bug(ptr noundef @.str, ptr noundef @.str.1, i32 noundef 75, ptr noundef @.str.4) #6
  unreachable

45:                                               ; No predecessors!
  br label %46

46:                                               ; preds = %45, %43
  %47 = load ptr, ptr %7, align 8
  %48 = getelementptr inbounds %struct._asn1_par_def_t, ptr %47, i32 0, i32 1
  %49 = load i32, ptr %48, align 8
  %50 = icmp eq i32 %49, 0
  br i1 %50, label %59, label %51

51:                                               ; preds = %46
  %52 = load ptr, ptr %8, align 8
  %53 = getelementptr inbounds %struct._asn1_par_t, ptr %52, i32 0, i32 1
  %54 = load i32, ptr %53, align 8
  %55 = load ptr, ptr %7, align 8
  %56 = getelementptr inbounds %struct._asn1_par_def_t, ptr %55, i32 0, i32 1
  %57 = load i32, ptr %56, align 8
  %58 = icmp eq i32 %54, %57
  br i1 %58, label %59, label %60

59:                                               ; preds = %51, %46
  br label %62

60:                                               ; preds = %51
  call void (ptr, ...) @proto_report_dissector_bug(ptr noundef @.str, ptr noundef @.str.1, i32 noundef 76, ptr noundef @.str.5) #6
  unreachable

61:                                               ; No predecessors!
  br label %62

62:                                               ; preds = %61, %59
  %63 = load ptr, ptr %7, align 8
  %64 = getelementptr inbounds %struct._asn1_par_def_t, ptr %63, i32 0, i32 0
  %65 = load ptr, ptr %64, align 8
  %66 = load ptr, ptr %8, align 8
  %67 = getelementptr inbounds %struct._asn1_par_t, ptr %66, i32 0, i32 0
  store ptr %65, ptr %67, align 8
  %68 = load ptr, ptr %7, align 8
  %69 = getelementptr %struct._asn1_par_def_t, ptr %68, i32 1
  store ptr %69, ptr %7, align 8
  %70 = load ptr, ptr %8, align 8
  %71 = getelementptr inbounds %struct._asn1_par_t, ptr %70, i32 0, i32 3
  %72 = load ptr, ptr %71, align 8
  store ptr %72, ptr %8, align 8
  br label %35, !llvm.loop !4

73:                                               ; preds = %35
  %74 = load ptr, ptr %8, align 8
  %75 = icmp ne ptr %74, null
  br i1 %75, label %77, label %76

76:                                               ; preds = %73
  br label %79

77:                                               ; preds = %73
  call void (ptr, ...) @proto_report_dissector_bug(ptr noundef @.str, ptr noundef @.str.1, i32 noundef 81, ptr noundef @.str.6) #6
  unreachable

78:                                               ; No predecessors!
  br label %79

79:                                               ; preds = %78, %76
  ret void
}