; Function Attrs: nounwind uwtable
define hidden void @asn1_stack_frame_check(ptr noundef readonly captures(none) %0, ptr noundef readonly captures(none) %1, ptr noundef readonly captures(none) %2) local_unnamed_addr #3 {
  %4 = getelementptr inbounds nuw i8, ptr %0, i64 32
  %5 = load ptr, ptr %4, align 8
  %.not = icmp eq ptr %5, null
  br i1 %.not, label %6, label %7

6:                                                ; preds = %3
  tail call void (ptr, ...) @proto_report_dissector_bug(ptr noundef nonnull @.str, ptr noundef nonnull @.str.1, i32 noundef 70, ptr noundef nonnull @.str.2) #11
  unreachable

7:                                                ; preds = %3
  %8 = load ptr, ptr %5, align 8
  %9 = tail call i32 @strcmp(ptr noundef nonnull dereferenceable(1) %8, ptr noundef nonnull dereferenceable(1) %1) #12
  %.not18 = icmp eq i32 %9, 0
  br i1 %.not18, label %11, label %10

10:                                               ; preds = %7
  tail call void (ptr, ...) @proto_report_dissector_bug(ptr noundef nonnull @.str, ptr noundef nonnull @.str.1, i32 noundef 71, ptr noundef nonnull @.str.3) #11
  unreachable

11:                                               ; preds = %7
  %12 = getelementptr inbounds nuw i8, ptr %5, i64 8
  %.024 = load ptr, ptr %12, align 8
  %13 = load ptr, ptr %2, align 8
  %.not1925 = icmp eq ptr %13, null
  br i1 %.not1925, label %._crit_edge, label %.lr.ph

.lr.ph:                                           ; preds = %11, %25
  %14 = phi ptr [ %28, %25 ], [ %13, %11 ]
  %.027 = phi ptr [ %.0, %25 ], [ %.024, %11 ]
  %.01526 = phi ptr [ %26, %25 ], [ %2, %11 ]
  %.not21 = icmp eq ptr %.027, null
  br i1 %.not21, label %15, label %16

15:                                               ; preds = %.lr.ph
  tail call void (ptr, ...) @proto_report_dissector_bug(ptr noundef nonnull @.str, ptr noundef nonnull @.str.1, i32 noundef 75, ptr noundef nonnull @.str.4) #11
  unreachable

16:                                               ; preds = %.lr.ph
  %17 = getelementptr inbounds nuw i8, ptr %.01526, i64 8
  %18 = load i32, ptr %17, align 8
  %19 = icmp eq i32 %18, 0
  br i1 %19, label %25, label %20

20:                                               ; preds = %16
  %21 = getelementptr inbounds nuw i8, ptr %.027, i64 8
  %22 = load i32, ptr %21, align 8
  %23 = icmp eq i32 %22, %18
  br i1 %23, label %25, label %24

24:                                               ; preds = %20
  tail call void (ptr, ...) @proto_report_dissector_bug(ptr noundef nonnull @.str, ptr noundef nonnull @.str.1, i32 noundef 76, ptr noundef nonnull @.str.5) #11
  unreachable

25:                                               ; preds = %16, %20
  store ptr %14, ptr %.027, align 8
  %26 = getelementptr i8, ptr %.01526, i64 16
  %27 = getelementptr inbounds nuw i8, ptr %.027, i64 24
  %.0 = load ptr, ptr %27, align 8
  %28 = load ptr, ptr %26, align 8
  %.not19 = icmp eq ptr %28, null
  br i1 %.not19, label %._crit_edge, label %.lr.ph, !llvm.loop !4

._crit_edge:                                      ; preds = %25, %11
  %.0.lcssa = phi ptr [ %.024, %11 ], [ %.0, %25 ]
  %.not20 = icmp eq ptr %.0.lcssa, null
  br i1 %.not20, label %30, label %29

29:                                               ; preds = %._crit_edge
  tail call void (ptr, ...) @proto_report_dissector_bug(ptr noundef nonnull @.str, ptr noundef nonnull @.str.1, i32 noundef 81, ptr noundef nonnull @.str.6) #11
  unreachable

30:                                               ; preds = %._crit_edge
  ret void
}